target datalayout = "e-m:e-p270:32:32-p271:32:32-p272:64:64-i64:64-f80:128-n8:16:32:64-S128"
target triple = "x86_64-pc-linux-gnu"

@sum = common dso_local global [1000 x float] zeroinitializer, align 16
@dis = common dso_local global [1000 x float] zeroinitializer, align 16
@.str = private unnamed_addr constant [3 x i8] c"%d\00", align 1
@.str.1 = private unnamed_addr constant [10 x i8] c"%d %d %d \00", align 1
@a = common dso_local global [1000 x i32] zeroinitializer, align 16
@b = common dso_local global [1000 x i32] zeroinitializer, align 16
@c = common dso_local global [1000 x i32] zeroinitializer, align 16
@x = common dso_local global [1000 x i32] zeroinitializer, align 16
@y = common dso_local global [1000 x i32] zeroinitializer, align 16
@.str.2 = private unnamed_addr constant [29 x i8] c"(%d,%d,%d)-(%d,%d,%d)=%.2lf\0A\00", align 1

; Function Attrs: noinline nounwind uwtable
define dso_local i32 @main() #0 {
  %1 = alloca i32, align 4
  %2 = alloca i32, align 4
  %3 = alloca i32, align 4
  %4 = alloca i32, align 4
  %5 = alloca i32, align 4
  %6 = alloca i32, align 4
  %7 = alloca i32, align 4
  %8 = alloca i32, align 4
  %9 = alloca float, align 4
  store i32 0, i32* %1, align 4
  store i32 0, i32* %2, align 4
  store i32 0, i32* %3, align 4
  store i32 0, i32* %4, align 4
  store i32 0, i32* %5, align 4
  store i32 0, i32* %6, align 4
  store i32 0, i32* %7, align 4
  store i32 0, i32* %8, align 4
  store float 0.000000e+00, float* %9, align 4
  store i32 0, i32* %4, align 4
  br label %10

10:                                               ; preds = %21, %0
  %11 = load i32, i32* %4, align 4
  %12 = load i32, i32* %2, align 4
  %13 = icmp slt i32 %11, %12
  br i1 %13, label %14, label %24

14:                                               ; preds = %10
  %15 = load i32, i32* %4, align 4
  %16 = sext i32 %15 to i64
  %17 = getelementptr inbounds [1000 x float], [1000 x float]* @sum, i64 0, i64 %16
  store float 0.000000e+00, float* %17, align 4
  %18 = load i32, i32* %4, align 4
  %19 = sext i32 %18 to i64
  %20 = getelementptr inbounds [1000 x float], [1000 x float]* @dis, i64 0, i64 %19
  store float 0.000000e+00, float* %20, align 4
  br label %21

21:                                               ; preds = %14
  %22 = load i32, i32* %4, align 4
  %23 = add nsw i32 %22, 1
  store i32 %23, i32* %4, align 4
  br label %10

24:                                               ; preds = %10
  %25 = call i32 (i8*, ...) @__isoc99_scanf(i8* getelementptr inbounds ([3 x i8], [3 x i8]* @.str, i64 0, i64 0), i32* %2)
  store i32 0, i32* %4, align 4
  br label %26

26:                                               ; preds = %41, %24
  %27 = load i32, i32* %4, align 4
  %28 = load i32, i32* %2, align 4
  %29 = icmp slt i32 %27, %28
  br i1 %29, label %30, label %44

30:                                               ; preds = %26
  %31 = load i32, i32* %4, align 4
  %32 = sext i32 %31 to i64
  %33 = getelementptr inbounds [1000 x i32], [1000 x i32]* @a, i64 0, i64 %32
  %34 = load i32, i32* %4, align 4
  %35 = sext i32 %34 to i64
  %36 = getelementptr inbounds [1000 x i32], [1000 x i32]* @b, i64 0, i64 %35
  %37 = load i32, i32* %4, align 4
  %38 = sext i32 %37 to i64
  %39 = getelementptr inbounds [1000 x i32], [1000 x i32]* @c, i64 0, i64 %38
  %40 = call i32 (i8*, ...) @__isoc99_scanf(i8* getelementptr inbounds ([10 x i8], [10 x i8]* @.str.1, i64 0, i64 0), i32* %33, i32* %36, i32* %39)
  br label %41

41:                                               ; preds = %30
  %42 = load i32, i32* %4, align 4
  %43 = add nsw i32 %42, 1
  store i32 %43, i32* %4, align 4
  br label %26

44:                                               ; preds = %26
  store i32 0, i32* %4, align 4
  br label %45

45:                                               ; preds = %145, %44
  %46 = load i32, i32* %4, align 4
  %47 = load i32, i32* %2, align 4
  %48 = sub nsw i32 %47, 1
  %49 = icmp slt i32 %46, %48
  br i1 %49, label %50, label %148

50:                                               ; preds = %45
  %51 = load i32, i32* %4, align 4
  %52 = add nsw i32 %51, 1
  store i32 %52, i32* %5, align 4
  br label %53

53:                                               ; preds = %141, %50
  %54 = load i32, i32* %5, align 4
  %55 = load i32, i32* %2, align 4
  %56 = icmp slt i32 %54, %55
  br i1 %56, label %57, label %144

57:                                               ; preds = %53
  %58 = load i32, i32* %4, align 4
  %59 = sext i32 %58 to i64
  %60 = getelementptr inbounds [1000 x i32], [1000 x i32]* @a, i64 0, i64 %59
  %61 = load i32, i32* %60, align 4
  %62 = load i32, i32* %5, align 4
  %63 = sext i32 %62 to i64
  %64 = getelementptr inbounds [1000 x i32], [1000 x i32]* @a, i64 0, i64 %63
  %65 = load i32, i32* %64, align 4
  %66 = sub nsw i32 %61, %65
  %67 = load i32, i32* %4, align 4
  %68 = sext i32 %67 to i64
  %69 = getelementptr inbounds [1000 x i32], [1000 x i32]* @a, i64 0, i64 %68
  %70 = load i32, i32* %69, align 4
  %71 = load i32, i32* %5, align 4
  %72 = sext i32 %71 to i64
  %73 = getelementptr inbounds [1000 x i32], [1000 x i32]* @a, i64 0, i64 %72
  %74 = load i32, i32* %73, align 4
  %75 = sub nsw i32 %70, %74
  %76 = mul nsw i32 %66, %75
  %77 = load i32, i32* %4, align 4
  %78 = sext i32 %77 to i64
  %79 = getelementptr inbounds [1000 x i32], [1000 x i32]* @b, i64 0, i64 %78
  %80 = load i32, i32* %79, align 4
  %81 = load i32, i32* %5, align 4
  %82 = sext i32 %81 to i64
  %83 = getelementptr inbounds [1000 x i32], [1000 x i32]* @b, i64 0, i64 %82
  %84 = load i32, i32* %83, align 4
  %85 = sub nsw i32 %80, %84
  %86 = load i32, i32* %4, align 4
  %87 = sext i32 %86 to i64
  %88 = getelementptr inbounds [1000 x i32], [1000 x i32]* @b, i64 0, i64 %87
  %89 = load i32, i32* %88, align 4
  %90 = load i32, i32* %5, align 4
  %91 = sext i32 %90 to i64
  %92 = getelementptr inbounds [1000 x i32], [1000 x i32]* @b, i64 0, i64 %91
  %93 = load i32, i32* %92, align 4
  %94 = sub nsw i32 %89, %93
  %95 = mul nsw i32 %85, %94
  %96 = add nsw i32 %76, %95
  %97 = load i32, i32* %4, align 4
  %98 = sext i32 %97 to i64
  %99 = getelementptr inbounds [1000 x i32], [1000 x i32]* @c, i64 0, i64 %98
  %100 = load i32, i32* %99, align 4
  %101 = load i32, i32* %5, align 4
  %102 = sext i32 %101 to i64
  %103 = getelementptr inbounds [1000 x i32], [1000 x i32]* @c, i64 0, i64 %102
  %104 = load i32, i32* %103, align 4
  %105 = sub nsw i32 %100, %104
  %106 = load i32, i32* %4, align 4
  %107 = sext i32 %106 to i64
  %108 = getelementptr inbounds [1000 x i32], [1000 x i32]* @c, i64 0, i64 %107
  %109 = load i32, i32* %108, align 4
  %110 = load i32, i32* %5, align 4
  %111 = sext i32 %110 to i64
  %112 = getelementptr inbounds [1000 x i32], [1000 x i32]* @c, i64 0, i64 %111
  %113 = load i32, i32* %112, align 4
  %114 = sub nsw i32 %109, %113
  %115 = mul nsw i32 %105, %114
  %116 = add nsw i32 %96, %115
  %117 = sitofp i32 %116 to float
  %118 = load i32, i32* %6, align 4
  %119 = sext i32 %118 to i64
  %120 = getelementptr inbounds [1000 x float], [1000 x float]* @sum, i64 0, i64 %119
  store float %117, float* %120, align 4
  %121 = load i32, i32* %6, align 4
  %122 = sext i32 %121 to i64
  %123 = getelementptr inbounds [1000 x float], [1000 x float]* @sum, i64 0, i64 %122
  %124 = load float, float* %123, align 4
  %125 = fpext float %124 to double
  %126 = call double @sqrt(double %125) #3
  %127 = fptrunc double %126 to float
  %128 = load i32, i32* %6, align 4
  %129 = sext i32 %128 to i64
  %130 = getelementptr inbounds [1000 x float], [1000 x float]* @dis, i64 0, i64 %129
  store float %127, float* %130, align 4
  %131 = load i32, i32* %4, align 4
  %132 = load i32, i32* %6, align 4
  %133 = sext i32 %132 to i64
  %134 = getelementptr inbounds [1000 x i32], [1000 x i32]* @x, i64 0, i64 %133
  store i32 %131, i32* %134, align 4
  %135 = load i32, i32* %5, align 4
  %136 = load i32, i32* %6, align 4
  %137 = sext i32 %136 to i64
  %138 = getelementptr inbounds [1000 x i32], [1000 x i32]* @y, i64 0, i64 %137
  store i32 %135, i32* %138, align 4
  %139 = load i32, i32* %6, align 4
  %140 = add nsw i32 %139, 1
  store i32 %140, i32* %6, align 4
  br label %141

141:                                              ; preds = %57
  %142 = load i32, i32* %5, align 4
  %143 = add nsw i32 %142, 1
  store i32 %143, i32* %5, align 4
  br label %53

144:                                              ; preds = %53
  br label %145

145:                                              ; preds = %144
  %146 = load i32, i32* %4, align 4
  %147 = add nsw i32 %146, 1
  store i32 %147, i32* %4, align 4
  br label %45

148:                                              ; preds = %45
  store i32 0, i32* %7, align 4
  br label %149

149:                                              ; preds = %235, %148
  %150 = load i32, i32* %7, align 4
  %151 = load i32, i32* %2, align 4
  %152 = load i32, i32* %2, align 4
  %153 = sub nsw i32 %152, 1
  %154 = mul nsw i32 %151, %153
  %155 = sdiv i32 %154, 2
  %156 = icmp slt i32 %150, %155
  br i1 %156, label %157, label %238

157:                                              ; preds = %149
  store i32 0, i32* %3, align 4
  br label %158

158:                                              ; preds = %231, %157
  %159 = load i32, i32* %3, align 4
  %160 = load i32, i32* %2, align 4
  %161 = load i32, i32* %2, align 4
  %162 = sub nsw i32 %161, 1
  %163 = mul nsw i32 %160, %162
  %164 = sdiv i32 %163, 2
  %165 = sub nsw i32 %164, 1
  %166 = icmp slt i32 %159, %165
  br i1 %166, label %167, label %234

167:                                              ; preds = %158
  %168 = load i32, i32* %3, align 4
  %169 = sext i32 %168 to i64
  %170 = getelementptr inbounds [1000 x float], [1000 x float]* @dis, i64 0, i64 %169
  %171 = load float, float* %170, align 4
  %172 = load i32, i32* %3, align 4
  %173 = add nsw i32 %172, 1
  %174 = sext i32 %173 to i64
  %175 = getelementptr inbounds [1000 x float], [1000 x float]* @dis, i64 0, i64 %174
  %176 = load float, float* %175, align 4
  %177 = fcmp olt float %171, %176
  br i1 %177, label %178, label %230

178:                                              ; preds = %167
  %179 = load i32, i32* %3, align 4
  %180 = sext i32 %179 to i64
  %181 = getelementptr inbounds [1000 x float], [1000 x float]* @dis, i64 0, i64 %180
  %182 = load float, float* %181, align 4
  store float %182, float* %9, align 4
  %183 = load i32, i32* %3, align 4
  %184 = add nsw i32 %183, 1
  %185 = sext i32 %184 to i64
  %186 = getelementptr inbounds [1000 x float], [1000 x float]* @dis, i64 0, i64 %185
  %187 = load float, float* %186, align 4
  %188 = load i32, i32* %3, align 4
  %189 = sext i32 %188 to i64
  %190 = getelementptr inbounds [1000 x float], [1000 x float]* @dis, i64 0, i64 %189
  store float %187, float* %190, align 4
  %191 = load float, float* %9, align 4
  %192 = load i32, i32* %3, align 4
  %193 = add nsw i32 %192, 1
  %194 = sext i32 %193 to i64
  %195 = getelementptr inbounds [1000 x float], [1000 x float]* @dis, i64 0, i64 %194
  store float %191, float* %195, align 4
  %196 = load i32, i32* %3, align 4
  %197 = sext i32 %196 to i64
  %198 = getelementptr inbounds [1000 x i32], [1000 x i32]* @x, i64 0, i64 %197
  %199 = load i32, i32* %198, align 4
  store i32 %199, i32* %8, align 4
  %200 = load i32, i32* %3, align 4
  %201 = add nsw i32 %200, 1
  %202 = sext i32 %201 to i64
  %203 = getelementptr inbounds [1000 x i32], [1000 x i32]* @x, i64 0, i64 %202
  %204 = load i32, i32* %203, align 4
  %205 = load i32, i32* %3, align 4
  %206 = sext i32 %205 to i64
  %207 = getelementptr inbounds [1000 x i32], [1000 x i32]* @x, i64 0, i64 %206
  store i32 %204, i32* %207, align 4
  %208 = load i32, i32* %8, align 4
  %209 = load i32, i32* %3, align 4
  %210 = add nsw i32 %209, 1
  %211 = sext i32 %210 to i64
  %212 = getelementptr inbounds [1000 x i32], [1000 x i32]* @x, i64 0, i64 %211
  store i32 %208, i32* %212, align 4
  %213 = load i32, i32* %3, align 4
  %214 = sext i32 %213 to i64
  %215 = getelementptr inbounds [1000 x i32], [1000 x i32]* @y, i64 0, i64 %214
  %216 = load i32, i32* %215, align 4
  store i32 %216, i32* %8, align 4
  %217 = load i32, i32* %3, align 4
  %218 = add nsw i32 %217, 1
  %219 = sext i32 %218 to i64
  %220 = getelementptr inbounds [1000 x i32], [1000 x i32]* @y, i64 0, i64 %219
  %221 = load i32, i32* %220, align 4
  %222 = load i32, i32* %3, align 4
  %223 = sext i32 %222 to i64
  %224 = getelementptr inbounds [1000 x i32], [1000 x i32]* @y, i64 0, i64 %223
  store i32 %221, i32* %224, align 4
  %225 = load i32, i32* %8, align 4
  %226 = load i32, i32* %3, align 4
  %227 = add nsw i32 %226, 1
  %228 = sext i32 %227 to i64
  %229 = getelementptr inbounds [1000 x i32], [1000 x i32]* @y, i64 0, i64 %228
  store i32 %225, i32* %229, align 4
  br label %230

230:                                              ; preds = %178, %167
  br label %231

231:                                              ; preds = %230
  %232 = load i32, i32* %3, align 4
  %233 = add nsw i32 %232, 1
  store i32 %233, i32* %3, align 4
  br label %158

234:                                              ; preds = %158
  br label %235

235:                                              ; preds = %234
  %236 = load i32, i32* %7, align 4
  %237 = add nsw i32 %236, 1
  store i32 %237, i32* %7, align 4
  br label %149

238:                                              ; preds = %149
  store i32 0, i32* %7, align 4
  br label %239

239:                                              ; preds = %296, %238
  %240 = load i32, i32* %7, align 4
  %241 = load i32, i32* %2, align 4
  %242 = load i32, i32* %2, align 4
  %243 = sub nsw i32 %242, 1
  %244 = mul nsw i32 %241, %243
  %245 = sdiv i32 %244, 2
  %246 = icmp slt i32 %240, %245
  br i1 %246, label %247, label %299

247:                                              ; preds = %239
  %248 = load i32, i32* %7, align 4
  %249 = sext i32 %248 to i64
  %250 = getelementptr inbounds [1000 x i32], [1000 x i32]* @x, i64 0, i64 %249
  %251 = load i32, i32* %250, align 4
  %252 = sext i32 %251 to i64
  %253 = getelementptr inbounds [1000 x i32], [1000 x i32]* @a, i64 0, i64 %252
  %254 = load i32, i32* %253, align 4
  %255 = load i32, i32* %7, align 4
  %256 = sext i32 %255 to i64
  %257 = getelementptr inbounds [1000 x i32], [1000 x i32]* @x, i64 0, i64 %256
  %258 = load i32, i32* %257, align 4
  %259 = sext i32 %258 to i64
  %260 = getelementptr inbounds [1000 x i32], [1000 x i32]* @b, i64 0, i64 %259
  %261 = load i32, i32* %260, align 4
  %262 = load i32, i32* %7, align 4
  %263 = sext i32 %262 to i64
  %264 = getelementptr inbounds [1000 x i32], [1000 x i32]* @x, i64 0, i64 %263
  %265 = load i32, i32* %264, align 4
  %266 = sext i32 %265 to i64
  %267 = getelementptr inbounds [1000 x i32], [1000 x i32]* @c, i64 0, i64 %266
  %268 = load i32, i32* %267, align 4
  %269 = load i32, i32* %7, align 4
  %270 = sext i32 %269 to i64
  %271 = getelementptr inbounds [1000 x i32], [1000 x i32]* @y, i64 0, i64 %270
  %272 = load i32, i32* %271, align 4
  %273 = sext i32 %272 to i64
  %274 = getelementptr inbounds [1000 x i32], [1000 x i32]* @a, i64 0, i64 %273
  %275 = load i32, i32* %274, align 4
  %276 = load i32, i32* %7, align 4
  %277 = sext i32 %276 to i64
  %278 = getelementptr inbounds [1000 x i32], [1000 x i32]* @y, i64 0, i64 %277
  %279 = load i32, i32* %278, align 4
  %280 = sext i32 %279 to i64
  %281 = getelementptr inbounds [1000 x i32], [1000 x i32]* @b, i64 0, i64 %280
  %282 = load i32, i32* %281, align 4
  %283 = load i32, i32* %7, align 4
  %284 = sext i32 %283 to i64
  %285 = getelementptr inbounds [1000 x i32], [1000 x i32]* @y, i64 0, i64 %284
  %286 = load i32, i32* %285, align 4
  %287 = sext i32 %286 to i64
  %288 = getelementptr inbounds [1000 x i32], [1000 x i32]* @c, i64 0, i64 %287
  %289 = load i32, i32* %288, align 4
  %290 = load i32, i32* %7, align 4
  %291 = sext i32 %290 to i64
  %292 = getelementptr inbounds [1000 x float], [1000 x float]* @dis, i64 0, i64 %291
  %293 = load float, float* %292, align 4
  %294 = fpext float %293 to double
  %295 = call i32 (i8*, ...) @printf(i8* getelementptr inbounds ([29 x i8], [29 x i8]* @.str.2, i64 0, i64 0), i32 %254, i32 %261, i32 %268, i32 %275, i32 %282, i32 %289, double %294)
  br label %296

296:                                              ; preds = %247
  %297 = load i32, i32* %7, align 4
  %298 = add nsw i32 %297, 1
  store i32 %298, i32* %7, align 4
  br label %239

299:                                              ; preds = %239
  ret i32 0
}